; Function Attrs: mustprogress uwtable
define void @_ZN7rocksdb18VersionEditHandler13OnWalDeletionERNS_11VersionEditE(ptr dead_on_unwind noalias writable sret(%"class.rocksdb::Status") align 8 %0, ptr noundef nonnull readonly align 8 captures(none) dereferenceable(896) %1, ptr noundef nonnull readonly align 8 captures(none) dereferenceable(504) %2) local_unnamed_addr #4 align 2 {
  %4 = getelementptr inbounds nuw i8, ptr %1, i64 104
  %5 = load ptr, ptr %4, align 8, !tbaa !227
  %6 = getelementptr inbounds nuw i8, ptr %5, i64 8
  %7 = getelementptr inbounds nuw i8, ptr %2, i64 304
  %8 = load i64, ptr %7, align 8, !tbaa !254
  tail call void @_ZN7rocksdb6WalSet16DeleteWalsBeforeEm(ptr dead_on_unwind writable sret(%"class.rocksdb::Status") align 8 %0, ptr noundef nonnull align 8 dereferenceable(56) %6, i64 noundef %8)
  ret void
}